target datalayout = "e-m:e-p270:32:32-p271:32:32-p272:64:64-i64:64-i128:128-f80:128-n8:16:32:64-S128"
target triple = "x86_64-pc-linux-gnu"

%struct.SSL_TEST_CTX = type { i32, i32, i32, i32, i32, %struct.SSL_TEST_EXTRA_CONF, %struct.SSL_TEST_EXTRA_CONF, i32, i32, i32, i32, i32, i32, i32, ptr, ptr, i32, i32, i32, i32, i32, ptr, i32, i32, i32, ptr, i32, i32, i32, i32, i32, ptr, ptr, ptr, ptr }
%struct.SSL_TEST_EXTRA_CONF = type { %struct.SSL_TEST_CLIENT_CONF, %struct.SSL_TEST_SERVER_CONF, %struct.SSL_TEST_SERVER_CONF }
%struct.SSL_TEST_CLIENT_CONF = type { i32, i32, i32, ptr, ptr, i32, ptr, ptr, ptr, i32, i32 }
%struct.SSL_TEST_SERVER_CONF = type { i32, ptr, ptr, i32, i32, ptr, ptr, i32, ptr }

@.str.138 = private unnamed_addr constant [6 x i8] c"empty\00", align 1

; Function Attrs: nounwind uwtable
define internal i32 @parse_expected_ca_names(ptr noundef %0, ptr noundef %1, ptr noundef %2) #0 {
  %4 = alloca i32, align 4
  %5 = alloca ptr, align 8
  %6 = alloca ptr, align 8
  %7 = alloca ptr, align 8
  store ptr %0, ptr %5, align 8, !tbaa !96
  store ptr %1, ptr %6, align 8, !tbaa !38
  store ptr %2, ptr %7, align 8, !tbaa !18
  %8 = load ptr, ptr %6, align 8, !tbaa !38
  %9 = icmp eq ptr %8, null
  br i1 %9, label %10, label %11

10:                                               ; preds = %3
  store i32 0, ptr %4, align 4
  br label %28

11:                                               ; preds = %3
  %12 = load ptr, ptr %6, align 8, !tbaa !38
  %13 = call i32 @strcmp(ptr noundef %12, ptr noundef @.str.138) #8
  %14 = icmp ne i32 %13, 0
  br i1 %14, label %18, label %15

15:                                               ; preds = %11
  %16 = call ptr @OPENSSL_sk_new_null()
  %17 = load ptr, ptr %5, align 8, !tbaa !96
  store ptr %16, ptr %17, align 8, !tbaa !35
  br label %23

18:                                               ; preds = %11
  %19 = load ptr, ptr %6, align 8, !tbaa !38
  %20 = load ptr, ptr %7, align 8, !tbaa !18
  %21 = call ptr @SSL_load_client_CA_file_ex(ptr noundef %19, ptr noundef %20, ptr noundef null)
  %22 = load ptr, ptr %5, align 8, !tbaa !96
  store ptr %21, ptr %22, align 8, !tbaa !35
  br label %23

23:                                               ; preds = %18, %15
  %24 = load ptr, ptr %5, align 8, !tbaa !96
  %25 = load ptr, ptr %24, align 8, !tbaa !35
  %26 = icmp ne ptr %25, null
  %27 = zext i1 %26 to i32
  store i32 %27, ptr %4, align 4
  br label %28

28:                                               ; preds = %23, %10
  %29 = load i32, ptr %4, align 4
  ret i32 %29
}

; Function Attrs: nounwind uwtable
define internal i32 @parse_expected_server_ca_names(ptr noundef %0, ptr noundef %1) #0 {
  %3 = alloca ptr, align 8
  %4 = alloca ptr, align 8
  store ptr %0, ptr %3, align 8, !tbaa !8
  store ptr %1, ptr %4, align 8, !tbaa !38
  %5 = load ptr, ptr %3, align 8, !tbaa !8
  %6 = getelementptr inbounds nuw %struct.SSL_TEST_CTX, ptr %5, i32 0, i32 21
  %7 = load ptr, ptr %4, align 8, !tbaa !38
  %8 = load ptr, ptr %3, align 8, !tbaa !8
  %9 = getelementptr inbounds nuw %struct.SSL_TEST_CTX, ptr %8, i32 0, i32 33
  %10 = load ptr, ptr %9, align 8, !tbaa !20
  %11 = call i32 @parse_expected_ca_names(ptr noundef %6, ptr noundef %7, ptr noundef %10)
  ret i32 %11
}